; Function Attrs: mustprogress uwtable
define void @_ZN8QuantLib25ParametricExerciseAdapter5resetEv(ptr nocapture noundef nonnull align 8 dereferenceable(144) %this) unnamed_addr #0 align 2 {
entry:
  %exercise_ = getelementptr inbounds nuw i8, ptr %this, i64 8
  %0 = load ptr, ptr %exercise_, align 8, !tbaa !6
  %vtable = load ptr, ptr %0, align 8, !tbaa !3
  %vfn = getelementptr inbounds i8, ptr %vtable, i64 48
  %1 = load ptr, ptr %vfn, align 8
  tail call void %1(ptr noundef nonnull align 8 dereferenceable(8) %0)
  %currentStep_ = getelementptr inbounds nuw i8, ptr %this, i64 64
  tail call void @llvm.memset.p0.i64(ptr noundef nonnull align 8 dereferenceable(16) %currentStep_, i8 0, i64 16, i1 false)
  ret void
}